#include <math.h>
#include <stdio.h>
#include <stdlib.h>
#include <string.h>

int main()
{
    struct student
    {
       int num;
       int chinese;
       int mathematics;
       int sum;
       }temp;
    struct student stu[100000];
    int i,j,n;
    scanf("%d",&n);
    for (i=0;i<n;i++){
        scanf("%d %d %d",&stu[i].num,&stu[i].chinese,&stu[i].mathematics);
        stu[i].sum=stu[i].chinese+stu[i].mathematics;
        }
    for (i=0;i<3;i++){
        for (j=0;j<n-i-1;j++){
            if (stu[j].sum>=stu[j+1].sum){
                temp=stu[j];
                stu[j]=stu[j+1];
                stu[j+1]=temp;
                }
            }
        }
    for (i=n-1;i>=n-3;i--){
        printf("%d %d\n",stu[i].num,stu[i].sum);}
    return 0;
    }
